target datalayout = "e-m:e-p270:32:32-p271:32:32-p272:64:64-i64:64-i128:128-f80:128-n8:16:32:64-S128"
target triple = "x86_64-pc-linux-gnu"

%struct._packet_info = type { ptr, ptr, i32, i32, %struct.nstime_t, %struct.nstime_t, %struct.nstime_t, i8, ptr, ptr, ptr, ptr, %struct._address, %struct._address, %struct._address, %struct._address, %struct._address, %struct._address, i32, ptr, i8, [3 x i8], %struct.anon.1, i32, i32, i32, i32, ptr, i8, ptr, ptr, i16, i16, i32, i32, i16, i32, i32, ptr, ptr, ptr, i8, i8, i16, i16, i16, i32, i16, i16, ptr, ptr, ptr, ptr, ptr, i32, i32 }
%struct.nstime_t = type { i64, i32 }
%struct._address = type { i32, i32, ptr, ptr }
%struct.anon.1 = type { i8, [3 x i8] }

@hf_megaco_h245 = internal global i32 0, align 4
@h245_handle = internal global ptr null, align 8
@.str.409 = private unnamed_addr constant [18 x i8] c"H.245 over MEGACO\00", align 1

; Function Attrs: null_pointer_is_valid sspstrong uwtable
define internal void @dissect_megaco_h245(ptr noundef %0, ptr noundef %1, ptr noundef %2, i32 noundef %3, i32 noundef %4, ptr noundef %5) #0 {
  %7 = alloca ptr, align 8
  %8 = alloca ptr, align 8
  %9 = alloca ptr, align 8
  %10 = alloca i32, align 4
  %11 = alloca i32, align 4
  %12 = alloca ptr, align 8
  %13 = alloca ptr, align 8
  %14 = alloca i32, align 4
  %15 = alloca ptr, align 8
  %16 = alloca ptr, align 8
  %17 = alloca i32, align 4
  %18 = alloca i32, align 4
  store ptr %0, ptr %7, align 8
  store ptr %1, ptr %8, align 8
  store ptr %2, ptr %9, align 8
  store i32 %3, ptr %10, align 4
  store i32 %4, ptr %11, align 4
  store ptr %5, ptr %12, align 8
  call void @llvm.lifetime.start.p0(i64 8, ptr %13) #12
  %19 = load ptr, ptr %8, align 8
  %20 = getelementptr inbounds nuw %struct._packet_info, ptr %19, i32 0, i32 51
  %21 = load ptr, ptr %20, align 8
  %22 = load ptr, ptr %7, align 8
  %23 = load i32, ptr %10, align 4
  %24 = load i32, ptr %11, align 4
  %25 = call ptr @tvb_format_text(ptr noundef %21, ptr noundef %22, i32 noundef %23, i32 noundef %24)
  store ptr %25, ptr %13, align 8
  %26 = load ptr, ptr %9, align 8
  %27 = load i32, ptr @hf_megaco_h245, align 4
  %28 = load ptr, ptr %7, align 8
  %29 = load i32, ptr %10, align 4
  %30 = load i32, ptr %11, align 4
  %31 = call ptr @proto_tree_add_item(ptr noundef %26, i32 noundef %27, ptr noundef %28, i32 noundef %29, i32 noundef %30, i32 noundef 0)
  %32 = load i32, ptr %11, align 4
  %33 = icmp slt i32 %32, 20480
  br i1 %33, label %34, label %288

34:                                               ; preds = %6
  call void @llvm.lifetime.start.p0(i64 4, ptr %14) #12
  call void @llvm.lifetime.start.p0(i64 8, ptr %15) #12
  call void @llvm.lifetime.start.p0(i64 8, ptr %16) #12
  %35 = load ptr, ptr %8, align 8
  %36 = getelementptr inbounds nuw %struct._packet_info, ptr %35, i32 0, i32 51
  %37 = load ptr, ptr %36, align 8
  %38 = call noalias ptr @wmem_alloc(ptr noundef %37, i64 noundef 10240) #13
  store ptr %38, ptr %16, align 8
  br label %39

39:                                               ; preds = %59, %34
  br label %40

40:                                               ; preds = %39
  %41 = load ptr, ptr %13, align 8
  %42 = load i8, ptr %41, align 1
  %43 = sext i8 %42 to i32
  %44 = icmp eq i32 %43, 0
  br i1 %44, label %50, label %45

45:                                               ; preds = %40
  %46 = load ptr, ptr %13, align 8
  %47 = load i8, ptr %46, align 1
  %48 = sext i8 %47 to i32
  %49 = icmp eq i32 %48, 10
  br i1 %49, label %50, label %51

50:                                               ; preds = %45, %40
  store i32 1, ptr %17, align 4
  br label %285

51:                                               ; preds = %45
  %52 = load ptr, ptr %13, align 8
  %53 = load i8, ptr %52, align 1
  %54 = sext i8 %53 to i32
  %55 = icmp eq i32 %54, 61
  br i1 %55, label %56, label %59

56:                                               ; preds = %51
  %57 = load ptr, ptr %13, align 8
  %58 = getelementptr i8, ptr %57, i32 1
  store ptr %58, ptr %13, align 8
  br label %62

59:                                               ; preds = %51
  %60 = load ptr, ptr %13, align 8
  %61 = getelementptr i8, ptr %60, i32 1
  store ptr %61, ptr %13, align 8
  br label %39

62:                                               ; preds = %56
  br label %63

63:                                               ; preds = %106, %62
  br label %64

64:                                               ; preds = %63
  %65 = load ptr, ptr %13, align 8
  %66 = load i8, ptr %65, align 1
  %67 = sext i8 %66 to i32
  %68 = icmp eq i32 %67, 0
  br i1 %68, label %74, label %69

69:                                               ; preds = %64
  %70 = load ptr, ptr %13, align 8
  %71 = load i8, ptr %70, align 1
  %72 = sext i8 %71 to i32
  %73 = icmp eq i32 %72, 10
  br i1 %73, label %74, label %75

74:                                               ; preds = %69, %64
  store i32 1, ptr %17, align 4
  br label %285

75:                                               ; preds = %69
  %76 = load ptr, ptr %13, align 8
  %77 = load i8, ptr %76, align 1
  %78 = sext i8 %77 to i32
  %79 = icmp sge i32 %78, 48
  br i1 %79, label %80, label %85

80:                                               ; preds = %75
  %81 = load ptr, ptr %13, align 8
  %82 = load i8, ptr %81, align 1
  %83 = sext i8 %82 to i32
  %84 = icmp sle i32 %83, 57
  br i1 %84, label %105, label %85

85:                                               ; preds = %80, %75
  %86 = load ptr, ptr %13, align 8
  %87 = load i8, ptr %86, align 1
  %88 = sext i8 %87 to i32
  %89 = icmp sge i32 %88, 97
  br i1 %89, label %90, label %95

90:                                               ; preds = %85
  %91 = load ptr, ptr %13, align 8
  %92 = load i8, ptr %91, align 1
  %93 = sext i8 %92 to i32
  %94 = icmp sle i32 %93, 102
  br i1 %94, label %105, label %95

95:                                               ; preds = %90, %85
  %96 = load ptr, ptr %13, align 8
  %97 = load i8, ptr %96, align 1
  %98 = sext i8 %97 to i32
  %99 = icmp sge i32 %98, 65
  br i1 %99, label %100, label %106

100:                                              ; preds = %95
  %101 = load ptr, ptr %13, align 8
  %102 = load i8, ptr %101, align 1
  %103 = sext i8 %102 to i32
  %104 = icmp sle i32 %103, 70
  br i1 %104, label %105, label %106

105:                                              ; preds = %100, %90, %80
  br label %109

106:                                              ; preds = %100, %95
  %107 = load ptr, ptr %13, align 8
  %108 = getelementptr i8, ptr %107, i32 1
  store ptr %108, ptr %13, align 8
  br label %63

109:                                              ; preds = %105
  store i32 0, ptr %14, align 4
  br label %110

110:                                              ; preds = %267, %109
  %111 = load ptr, ptr %13, align 8
  %112 = load i8, ptr %111, align 1
  %113 = sext i8 %112 to i32
  %114 = icmp sge i32 %113, 48
  br i1 %114, label %115, label %120

115:                                              ; preds = %110
  %116 = load ptr, ptr %13, align 8
  %117 = load i8, ptr %116, align 1
  %118 = sext i8 %117 to i32
  %119 = icmp sle i32 %118, 57
  br i1 %119, label %142, label %120

120:                                              ; preds = %115, %110
  %121 = load ptr, ptr %13, align 8
  %122 = load i8, ptr %121, align 1
  %123 = sext i8 %122 to i32
  %124 = icmp sge i32 %123, 97
  br i1 %124, label %125, label %130

125:                                              ; preds = %120
  %126 = load ptr, ptr %13, align 8
  %127 = load i8, ptr %126, align 1
  %128 = sext i8 %127 to i32
  %129 = icmp sle i32 %128, 102
  br i1 %129, label %142, label %130

130:                                              ; preds = %125, %120
  %131 = load ptr, ptr %13, align 8
  %132 = load i8, ptr %131, align 1
  %133 = sext i8 %132 to i32
  %134 = icmp sge i32 %133, 65
  br i1 %134, label %135, label %140

135:                                              ; preds = %130
  %136 = load ptr, ptr %13, align 8
  %137 = load i8, ptr %136, align 1
  %138 = sext i8 %137 to i32
  %139 = icmp sle i32 %138, 70
  br label %140

140:                                              ; preds = %135, %130
  %141 = phi i1 [ false, %130 ], [ %139, %135 ]
  br label %142

142:                                              ; preds = %140, %125, %115
  %143 = phi i1 [ true, %125 ], [ true, %115 ], [ %141, %140 ]
  br i1 %143, label %144, label %268

144:                                              ; preds = %142
  call void @llvm.lifetime.start.p0(i64 4, ptr %18) #12
  %145 = load ptr, ptr %13, align 8
  %146 = load i8, ptr %145, align 1
  %147 = sext i8 %146 to i32
  %148 = icmp sge i32 %147, 48
  br i1 %148, label %149, label %159

149:                                              ; preds = %144
  %150 = load ptr, ptr %13, align 8
  %151 = load i8, ptr %150, align 1
  %152 = sext i8 %151 to i32
  %153 = icmp sle i32 %152, 57
  br i1 %153, label %154, label %159

154:                                              ; preds = %149
  %155 = load ptr, ptr %13, align 8
  %156 = load i8, ptr %155, align 1
  %157 = sext i8 %156 to i32
  %158 = sub i32 %157, 48
  store i32 %158, ptr %18, align 4
  br label %194

159:                                              ; preds = %149, %144
  %160 = load ptr, ptr %13, align 8
  %161 = load i8, ptr %160, align 1
  %162 = sext i8 %161 to i32
  %163 = icmp sge i32 %162, 97
  br i1 %163, label %164, label %175

164:                                              ; preds = %159
  %165 = load ptr, ptr %13, align 8
  %166 = load i8, ptr %165, align 1
  %167 = sext i8 %166 to i32
  %168 = icmp sle i32 %167, 102
  br i1 %168, label %169, label %175

169:                                              ; preds = %164
  %170 = load ptr, ptr %13, align 8
  %171 = load i8, ptr %170, align 1
  %172 = sext i8 %171 to i32
  %173 = sub i32 %172, 97
  %174 = add i32 %173, 10
  store i32 %174, ptr %18, align 4
  br label %193

175:                                              ; preds = %164, %159
  %176 = load ptr, ptr %13, align 8
  %177 = load i8, ptr %176, align 1
  %178 = sext i8 %177 to i32
  %179 = icmp sge i32 %178, 65
  br i1 %179, label %180, label %191

180:                                              ; preds = %175
  %181 = load ptr, ptr %13, align 8
  %182 = load i8, ptr %181, align 1
  %183 = sext i8 %182 to i32
  %184 = icmp sle i32 %183, 70
  br i1 %184, label %185, label %191

185:                                              ; preds = %180
  %186 = load ptr, ptr %13, align 8
  %187 = load i8, ptr %186, align 1
  %188 = sext i8 %187 to i32
  %189 = sub i32 %188, 65
  %190 = add i32 %189, 10
  store i32 %190, ptr %18, align 4
  br label %192

191:                                              ; preds = %180, %175
  store i32 1, ptr %17, align 4
  br label %265

192:                                              ; preds = %185
  br label %193

193:                                              ; preds = %192, %169
  br label %194

194:                                              ; preds = %193, %154
  %195 = load i32, ptr %18, align 4
  %196 = shl i32 %195, 4
  store i32 %196, ptr %18, align 4
  %197 = load ptr, ptr %13, align 8
  %198 = getelementptr i8, ptr %197, i32 1
  store ptr %198, ptr %13, align 8
  %199 = load ptr, ptr %13, align 8
  %200 = load i8, ptr %199, align 1
  %201 = sext i8 %200 to i32
  %202 = icmp sge i32 %201, 48
  br i1 %202, label %203, label %215

203:                                              ; preds = %194
  %204 = load ptr, ptr %13, align 8
  %205 = load i8, ptr %204, align 1
  %206 = sext i8 %205 to i32
  %207 = icmp sle i32 %206, 57
  br i1 %207, label %208, label %215

208:                                              ; preds = %203
  %209 = load ptr, ptr %13, align 8
  %210 = load i8, ptr %209, align 1
  %211 = sext i8 %210 to i32
  %212 = sub i32 %211, 48
  %213 = load i32, ptr %18, align 4
  %214 = or i32 %213, %212
  store i32 %214, ptr %18, align 4
  br label %254

215:                                              ; preds = %203, %194
  %216 = load ptr, ptr %13, align 8
  %217 = load i8, ptr %216, align 1
  %218 = sext i8 %217 to i32
  %219 = icmp sge i32 %218, 97
  br i1 %219, label %220, label %233

220:                                              ; preds = %215
  %221 = load ptr, ptr %13, align 8
  %222 = load i8, ptr %221, align 1
  %223 = sext i8 %222 to i32
  %224 = icmp sle i32 %223, 102
  br i1 %224, label %225, label %233

225:                                              ; preds = %220
  %226 = load ptr, ptr %13, align 8
  %227 = load i8, ptr %226, align 1
  %228 = sext i8 %227 to i32
  %229 = sub i32 %228, 97
  %230 = add i32 %229, 10
  %231 = load i32, ptr %18, align 4
  %232 = or i32 %231, %230
  store i32 %232, ptr %18, align 4
  br label %253

233:                                              ; preds = %220, %215
  %234 = load ptr, ptr %13, align 8
  %235 = load i8, ptr %234, align 1
  %236 = sext i8 %235 to i32
  %237 = icmp sge i32 %236, 65
  br i1 %237, label %238, label %251

238:                                              ; preds = %233
  %239 = load ptr, ptr %13, align 8
  %240 = load i8, ptr %239, align 1
  %241 = sext i8 %240 to i32
  %242 = icmp sle i32 %241, 70
  br i1 %242, label %243, label %251

243:                                              ; preds = %238
  %244 = load ptr, ptr %13, align 8
  %245 = load i8, ptr %244, align 1
  %246 = sext i8 %245 to i32
  %247 = sub i32 %246, 65
  %248 = add i32 %247, 10
  %249 = load i32, ptr %18, align 4
  %250 = or i32 %249, %248
  store i32 %250, ptr %18, align 4
  br label %252

251:                                              ; preds = %238, %233
  store i32 1, ptr %17, align 4
  br label %265

252:                                              ; preds = %243
  br label %253

253:                                              ; preds = %252, %225
  br label %254

254:                                              ; preds = %253, %208
  %255 = load ptr, ptr %13, align 8
  %256 = getelementptr i8, ptr %255, i32 1
  store ptr %256, ptr %13, align 8
  %257 = load i32, ptr %18, align 4
  %258 = trunc i32 %257 to i8
  %259 = load ptr, ptr %16, align 8
  %260 = load i32, ptr %14, align 4
  %261 = sext i32 %260 to i64
  %262 = getelementptr i8, ptr %259, i64 %261
  store i8 %258, ptr %262, align 1
  %263 = load i32, ptr %14, align 4
  %264 = add i32 %263, 1
  store i32 %264, ptr %14, align 4
  store i32 0, ptr %17, align 4
  br label %265

265:                                              ; preds = %254, %251, %191
  call void @llvm.lifetime.end.p0(i64 4, ptr %18) #12
  %266 = load i32, ptr %17, align 4
  switch i32 %266, label %285 [
    i32 0, label %267
  ]

267:                                              ; preds = %265
  br label %110, !llvm.loop !47

268:                                              ; preds = %142
  %269 = load i32, ptr %14, align 4
  %270 = icmp eq i32 %269, 0
  br i1 %270, label %271, label %272

271:                                              ; preds = %268
  store i32 1, ptr %17, align 4
  br label %285

272:                                              ; preds = %268
  %273 = load ptr, ptr %7, align 8
  %274 = load ptr, ptr %16, align 8
  %275 = load i32, ptr %14, align 4
  %276 = load i32, ptr %14, align 4
  %277 = call ptr @tvb_new_child_real_data(ptr noundef %273, ptr noundef %274, i32 noundef %275, i32 noundef %276)
  store ptr %277, ptr %15, align 8
  %278 = load ptr, ptr %8, align 8
  %279 = load ptr, ptr %15, align 8
  call void @add_new_data_source(ptr noundef %278, ptr noundef %279, ptr noundef @.str.409)
  %280 = load ptr, ptr @h245_handle, align 8
  %281 = load ptr, ptr %15, align 8
  %282 = load ptr, ptr %8, align 8
  %283 = load ptr, ptr %12, align 8
  %284 = call i32 @call_dissector(ptr noundef %280, ptr noundef %281, ptr noundef %282, ptr noundef %283)
  store i32 0, ptr %17, align 4
  br label %285

285:                                              ; preds = %272, %271, %265, %74, %50
  call void @llvm.lifetime.end.p0(i64 8, ptr %16) #12
  call void @llvm.lifetime.end.p0(i64 8, ptr %15) #12
  call void @llvm.lifetime.end.p0(i64 4, ptr %14) #12
  %286 = load i32, ptr %17, align 4
  switch i32 %286, label %289 [
    i32 0, label %287
  ]

287:                                              ; preds = %285
  br label %288

288:                                              ; preds = %287, %6
  store i32 0, ptr %17, align 4
  br label %289

289:                                              ; preds = %288, %285
  call void @llvm.lifetime.end.p0(i64 8, ptr %13) #12
  %290 = load i32, ptr %17, align 4
  switch i32 %290, label %292 [
    i32 0, label %291
    i32 1, label %291
  ]

291:                                              ; preds = %289, %289
  ret void

292:                                              ; preds = %289
  unreachable
}