; Function Attrs: null_pointer_is_valid sspstrong uwtable
define internal fastcc void @dissect_megaco_h245(ptr noundef %0, ptr noundef %1, ptr noundef %2, i32 noundef %3, i32 noundef %4, ptr noundef %5) unnamed_addr #0 {
  %7 = getelementptr inbounds nuw i8, ptr %1, i64 408
  %8 = load ptr, ptr %7, align 8
  %9 = tail call ptr @tvb_format_text(ptr noundef %8, ptr noundef %0, i32 noundef %3, i32 noundef %4)
  %10 = load i32, ptr @hf_megaco_h245, align 4
  %11 = tail call ptr @proto_tree_add_item(ptr noundef %2, i32 noundef %10, ptr noundef %0, i32 noundef %3, i32 noundef %4, i32 noundef 0)
  %12 = icmp slt i32 %4, 20480
  br i1 %12, label %13, label %.critedge106

13:                                               ; preds = %6
  %14 = load ptr, ptr %7, align 8
  %15 = tail call noalias dereferenceable_or_null(10240) ptr @wmem_alloc(ptr noundef %14, i64 noundef 10240) #13
  br label %16

16:                                               ; preds = %18, %13
  %.074 = phi ptr [ %9, %13 ], [ %19, %18 ]
  %17 = load i8, ptr %.074, align 1
  switch i8 %17, label %18 [
    i8 0, label %.critedge106
    i8 10, label %.critedge106
    i8 61, label %.preheader114
  ]

18:                                               ; preds = %16
  %19 = getelementptr i8, ptr %.074, i64 1
  br label %16

.preheader114:                                    ; preds = %16, %switch.early.test
  %.074.pn = phi ptr [ %.175, %switch.early.test ], [ %.074, %16 ]
  %.175 = getelementptr i8, ptr %.074.pn, i64 1
  %20 = load i8, ptr %.175, align 1
  switch i8 %20, label %21 [
    i8 0, label %.critedge106
    i8 10, label %.critedge106
  ]

21:                                               ; preds = %.preheader114
  %22 = add i8 %20, -48
  %or.cond = icmp ult i8 %22, 10
  br i1 %or.cond, label %.preheader.preheader, label %switch.early.test

switch.early.test:                                ; preds = %21
  switch i8 %20, label %.preheader114 [
    i8 102, label %.preheader.preheader
    i8 101, label %.preheader.preheader
    i8 100, label %.preheader.preheader
    i8 99, label %.preheader.preheader
    i8 98, label %.preheader.preheader
    i8 97, label %.preheader.preheader
    i8 70, label %.preheader.preheader
    i8 69, label %.preheader.preheader
    i8 68, label %.preheader.preheader
    i8 67, label %.preheader.preheader
    i8 66, label %.preheader.preheader
    i8 65, label %.preheader.preheader
  ]

.preheader.preheader:                             ; preds = %21, %switch.early.test, %switch.early.test, %switch.early.test, %switch.early.test, %switch.early.test, %switch.early.test, %switch.early.test, %switch.early.test, %switch.early.test, %switch.early.test, %switch.early.test, %switch.early.test
  br label %.preheader

.preheader:                                       ; preds = %.preheader.preheader, %43
  %23 = phi i8 [ %.pre, %43 ], [ %20, %.preheader.preheader ]
  %.076 = phi i32 [ %47, %43 ], [ 0, %.preheader.preheader ]
  %.2 = phi ptr [ %44, %43 ], [ %.175, %.preheader.preheader ]
  %24 = add i8 %23, -48
  %or.cond96 = icmp ult i8 %24, 10
  br i1 %or.cond96, label %.critedge, label %25

25:                                               ; preds = %.preheader
  %26 = add i8 %23, -97
  %or.cond97 = icmp ult i8 %26, 6
  br i1 %or.cond97, label %.critedge.thread, label %27

27:                                               ; preds = %25
  %28 = add i8 %23, -65
  %or.cond98 = icmp ult i8 %28, 6
  br i1 %or.cond98, label %.critedge.thread.thread, label %.critedge3

.critedge.thread:                                 ; preds = %25
  %29 = add nsw i8 %23, -87
  br label %.critedge

.critedge.thread.thread:                          ; preds = %27
  %30 = add nsw i8 %23, -55
  br label %.critedge

.critedge:                                        ; preds = %.preheader, %.critedge.thread, %.critedge.thread.thread
  %.0 = phi i8 [ %29, %.critedge.thread ], [ %30, %.critedge.thread.thread ], [ %24, %.preheader ]
  %31 = shl nuw i8 %.0, 4
  %32 = getelementptr i8, ptr %.2, i64 1
  %33 = load i8, ptr %32, align 1
  %34 = add i8 %33, -48
  %or.cond102 = icmp ult i8 %34, 10
  br i1 %or.cond102, label %43, label %35

35:                                               ; preds = %.critedge
  %36 = add i8 %33, -97
  %or.cond103 = icmp ult i8 %36, 6
  br i1 %or.cond103, label %37, label %39

37:                                               ; preds = %35
  %38 = add nsw i8 %33, -87
  br label %43

39:                                               ; preds = %35
  %40 = add i8 %33, -65
  %or.cond104 = icmp ult i8 %40, 6
  br i1 %or.cond104, label %41, label %.critedge106

41:                                               ; preds = %39
  %42 = add nsw i8 %33, -55
  br label %43

43:                                               ; preds = %.critedge, %41, %37
  %.pn = phi i8 [ %38, %37 ], [ %42, %41 ], [ %34, %.critedge ]
  %.1 = or i8 %.pn, %31
  %44 = getelementptr i8, ptr %.2, i64 2
  %45 = sext i32 %.076 to i64
  %46 = getelementptr i8, ptr %15, i64 %45
  store i8 %.1, ptr %46, align 1
  %47 = add i32 %.076, 1
  %.pre = load i8, ptr %44, align 1
  br label %.preheader, !llvm.loop !49

.critedge3:                                       ; preds = %27
  %48 = icmp eq i32 %.076, 0
  br i1 %48, label %.critedge106, label %49

49:                                               ; preds = %.critedge3
  %50 = tail call ptr @tvb_new_child_real_data(ptr noundef %0, ptr noundef %15, i32 noundef %.076, i32 noundef %.076)
  tail call void @add_new_data_source(ptr noundef %1, ptr noundef %50, ptr noundef nonnull @.str.409)
  %51 = load ptr, ptr @h245_handle, align 8
  %52 = tail call i32 @call_dissector(ptr noundef %51, ptr noundef %50, ptr noundef %1, ptr noundef %5)
  br label %.critedge106

.critedge106:                                     ; preds = %16, %16, %.preheader114, %.preheader114, %39, %.critedge3, %6, %49
  ret void
}